; ModuleID = '9/1190.c'
source_filename = "9/1190.c"
target datalayout = "e-m:e-p270:32:32-p271:32:32-p272:64:64-i64:64-f80:128-n8:16:32:64-S128"
target triple = "x86_64-pc-linux-gnu"

@.str = private unnamed_addr constant [3 x i8] c"%d\00", align 1
@.str.1 = private unnamed_addr constant [6 x i8] c"%s %d\00", align 1

; Function Attrs: noinline nounwind uwtable
define dso_local i32 @main() #0 {
  %1 = alloca i32, align 4
  %2 = alloca i32, align 4
  %3 = alloca i32, align 4
  %4 = alloca i32, align 4
  %5 = alloca i32, align 4
  %6 = alloca i32, align 4
  %7 = alloca i32, align 4
  %8 = alloca [100 x [10 x i8]], align 16
  %9 = alloca [100 x [10 x i8]], align 16
  %10 = alloca [100 x [10 x i8]], align 16
  %11 = alloca [100 x i8], align 16
  %12 = alloca [100 x i32], align 16
  %13 = alloca [100 x i32], align 16
  store i32 0, i32* %1, align 4
  store i32 0, i32* %4, align 4
  store i32 0, i32* %5, align 4
  %14 = call i32 (i8*, ...) @__isoc99_scanf(i8* getelementptr inbounds ([3 x i8], [3 x i8]* @.str, i64 0, i64 0), i32* %2)
  store i32 0, i32* %3, align 4
  br label %15

15:                                               ; preds = %28, %0
  %16 = load i32, i32* %3, align 4
  %17 = load i32, i32* %2, align 4
  %18 = icmp slt i32 %16, %17
  br i1 %18, label %19, label %31

19:                                               ; preds = %15
  %20 = load i32, i32* %3, align 4
  %21 = sext i32 %20 to i64
  %22 = getelementptr inbounds [100 x [10 x i8]], [100 x [10 x i8]]* %8, i64 0, i64 %21
  %23 = getelementptr inbounds [10 x i8], [10 x i8]* %22, i64 0, i64 0
  %24 = load i32, i32* %3, align 4
  %25 = sext i32 %24 to i64
  %26 = getelementptr inbounds [100 x i32], [100 x i32]* %12, i64 0, i64 %25
  %27 = call i32 (i8*, ...) @__isoc99_scanf(i8* getelementptr inbounds ([6 x i8], [6 x i8]* @.str.1, i64 0, i64 0), i8* %23, i32* %26)
  br label %28

28:                                               ; preds = %19
  %29 = load i32, i32* %3, align 4
  %30 = add nsw i32 %29, 1
  store i32 %30, i32* %3, align 4
  br label %15

31:                                               ; preds = %15
  store i32 0, i32* %3, align 4
  br label %32

32:                                               ; preds = %74, %31
  %33 = load i32, i32* %3, align 4
  %34 = load i32, i32* %2, align 4
  %35 = icmp slt i32 %33, %34
  br i1 %35, label %36, label %77

36:                                               ; preds = %32
  %37 = load i32, i32* %3, align 4
  %38 = sext i32 %37 to i64
  %39 = getelementptr inbounds [100 x i32], [100 x i32]* %12, i64 0, i64 %38
  %40 = load i32, i32* %39, align 4
  %41 = icmp sge i32 %40, 60
  br i1 %41, label %42, label %61

42:                                               ; preds = %36
  %43 = load i32, i32* %4, align 4
  %44 = sext i32 %43 to i64
  %45 = getelementptr inbounds [100 x [10 x i8]], [100 x [10 x i8]]* %9, i64 0, i64 %44
  %46 = getelementptr inbounds [10 x i8], [10 x i8]* %45, i64 0, i64 0
  %47 = load i32, i32* %3, align 4
  %48 = sext i32 %47 to i64
  %49 = getelementptr inbounds [100 x [10 x i8]], [100 x [10 x i8]]* %8, i64 0, i64 %48
  %50 = getelementptr inbounds [10 x i8], [10 x i8]* %49, i64 0, i64 0
  %51 = call i8* @strcpy(i8* %46, i8* %50) #3
  %52 = load i32, i32* %3, align 4
  %53 = sext i32 %52 to i64
  %54 = getelementptr inbounds [100 x i32], [100 x i32]* %12, i64 0, i64 %53
  %55 = load i32, i32* %54, align 4
  %56 = load i32, i32* %4, align 4
  %57 = sext i32 %56 to i64
  %58 = getelementptr inbounds [100 x i32], [100 x i32]* %13, i64 0, i64 %57
  store i32 %55, i32* %58, align 4
  %59 = load i32, i32* %4, align 4
  %60 = add nsw i32 %59, 1
  store i32 %60, i32* %4, align 4
  br label %73

61:                                               ; preds = %36
  %62 = load i32, i32* %5, align 4
  %63 = sext i32 %62 to i64
  %64 = getelementptr inbounds [100 x [10 x i8]], [100 x [10 x i8]]* %10, i64 0, i64 %63
  %65 = getelementptr inbounds [10 x i8], [10 x i8]* %64, i64 0, i64 0
  %66 = load i32, i32* %3, align 4
  %67 = sext i32 %66 to i64
  %68 = getelementptr inbounds [100 x [10 x i8]], [100 x [10 x i8]]* %8, i64 0, i64 %67
  %69 = getelementptr inbounds [10 x i8], [10 x i8]* %68, i64 0, i64 0
  %70 = call i8* @strcpy(i8* %65, i8* %69) #3
  %71 = load i32, i32* %5, align 4
  %72 = add nsw i32 %71, 1
  store i32 %72, i32* %5, align 4
  br label %73

73:                                               ; preds = %61, %42
  br label %74

74:                                               ; preds = %73
  %75 = load i32, i32* %3, align 4
  %76 = add nsw i32 %75, 1
  store i32 %76, i32* %3, align 4
  br label %32

77:                                               ; preds = %32
  %78 = load i32, i32* %4, align 4
  %79 = sub nsw i32 %78, 1
  store i32 %79, i32* %3, align 4
  br label %80

80:                                               ; preds = %145, %77
  %81 = load i32, i32* %3, align 4
  %82 = icmp sgt i32 %81, 0
  br i1 %82, label %83, label %148

83:                                               ; preds = %80
  store i32 0, i32* %7, align 4
  br label %84

84:                                               ; preds = %141, %83
  %85 = load i32, i32* %7, align 4
  %86 = load i32, i32* %3, align 4
  %87 = icmp slt i32 %85, %86
  br i1 %87, label %88, label %144

88:                                               ; preds = %84
  %89 = load i32, i32* %7, align 4
  %90 = sext i32 %89 to i64
  %91 = getelementptr inbounds [100 x i32], [100 x i32]* %13, i64 0, i64 %90
  %92 = load i32, i32* %91, align 4
  %93 = load i32, i32* %7, align 4
  %94 = add nsw i32 %93, 1
  %95 = sext i32 %94 to i64
  %96 = getelementptr inbounds [100 x i32], [100 x i32]* %13, i64 0, i64 %95
  %97 = load i32, i32* %96, align 4
  %98 = icmp slt i32 %92, %97
  br i1 %98, label %99, label %140

99:                                               ; preds = %88
  %100 = load i32, i32* %7, align 4
  %101 = add nsw i32 %100, 1
  %102 = sext i32 %101 to i64
  %103 = getelementptr inbounds [100 x i32], [100 x i32]* %13, i64 0, i64 %102
  %104 = load i32, i32* %103, align 4
  store i32 %104, i32* %6, align 4
  %105 = load i32, i32* %7, align 4
  %106 = sext i32 %105 to i64
  %107 = getelementptr inbounds [100 x i32], [100 x i32]* %13, i64 0, i64 %106
  %108 = load i32, i32* %107, align 4
  %109 = load i32, i32* %7, align 4
  %110 = add nsw i32 %109, 1
  %111 = sext i32 %110 to i64
  %112 = getelementptr inbounds [100 x i32], [100 x i32]* %13, i64 0, i64 %111
  store i32 %108, i32* %112, align 4
  %113 = load i32, i32* %6, align 4
  %114 = load i32, i32* %7, align 4
  %115 = sext i32 %114 to i64
  %116 = getelementptr inbounds [100 x i32], [100 x i32]* %13, i64 0, i64 %115
  store i32 %113, i32* %116, align 4
  %117 = getelementptr inbounds [100 x i8], [100 x i8]* %11, i64 0, i64 0
  %118 = load i32, i32* %7, align 4
  %119 = add nsw i32 %118, 1
  %120 = sext i32 %119 to i64
  %121 = getelementptr inbounds [100 x [10 x i8]], [100 x [10 x i8]]* %9, i64 0, i64 %120
  %122 = getelementptr inbounds [10 x i8], [10 x i8]* %121, i64 0, i64 0
  %123 = call i8* @strcpy(i8* %117, i8* %122) #3
  %124 = load i32, i32* %7, align 4
  %125 = add nsw i32 %124, 1
  %126 = sext i32 %125 to i64
  %127 = getelementptr inbounds [100 x [10 x i8]], [100 x [10 x i8]]* %9, i64 0, i64 %126
  %128 = getelementptr inbounds [10 x i8], [10 x i8]* %127, i64 0, i64 0
  %129 = load i32, i32* %7, align 4
  %130 = sext i32 %129 to i64
  %131 = getelementptr inbounds [100 x [10 x i8]], [100 x [10 x i8]]* %9, i64 0, i64 %130
  %132 = getelementptr inbounds [10 x i8], [10 x i8]* %131, i64 0, i64 0
  %133 = call i8* @strcpy(i8* %128, i8* %132) #3
  %134 = load i32, i32* %7, align 4
  %135 = sext i32 %134 to i64
  %136 = getelementptr inbounds [100 x [10 x i8]], [100 x [10 x i8]]* %9, i64 0, i64 %135
  %137 = getelementptr inbounds [10 x i8], [10 x i8]* %136, i64 0, i64 0
  %138 = getelementptr inbounds [100 x i8], [100 x i8]* %11, i64 0, i64 0
  %139 = call i8* @strcpy(i8* %137, i8* %138) #3
  br label %140

140:                                              ; preds = %99, %88
  br label %141

141:                                              ; preds = %140
  %142 = load i32, i32* %7, align 4
  %143 = add nsw i32 %142, 1
  store i32 %143, i32* %7, align 4
  br label %84

144:                                              ; preds = %84
  br label %145

145:                                              ; preds = %144
  %146 = load i32, i32* %3, align 4
  %147 = add nsw i32 %146, -1
  store i32 %147, i32* %3, align 4
  br label %80

148:                                              ; preds = %80
  store i32 0, i32* %3, align 4
  br label %149

149:                                              ; preds = %159, %148
  %150 = load i32, i32* %3, align 4
  %151 = load i32, i32* %4, align 4
  %152 = icmp slt i32 %150, %151
  br i1 %152, label %153, label %162

153:                                              ; preds = %149
  %154 = load i32, i32* %3, align 4
  %155 = sext i32 %154 to i64
  %156 = getelementptr inbounds [100 x [10 x i8]], [100 x [10 x i8]]* %9, i64 0, i64 %155
  %157 = getelementptr inbounds [10 x i8], [10 x i8]* %156, i64 0, i64 0
  %158 = call i32 @puts(i8* %157)
  br label %159

159:                                              ; preds = %153
  %160 = load i32, i32* %3, align 4
  %161 = add nsw i32 %160, 1
  store i32 %161, i32* %3, align 4
  br label %149

162:                                              ; preds = %149
  store i32 0, i32* %3, align 4
  br label %163

163:                                              ; preds = %173, %162
  %164 = load i32, i32* %3, align 4
  %165 = load i32, i32* %5, align 4
  %166 = icmp slt i32 %164, %165
  br i1 %166, label %167, label %176

167:                                              ; preds = %163
  %168 = load i32, i32* %3, align 4
  %169 = sext i32 %168 to i64
  %170 = getelementptr inbounds [100 x [10 x i8]], [100 x [10 x i8]]* %10, i64 0, i64 %169
  %171 = getelementptr inbounds [10 x i8], [10 x i8]* %170, i64 0, i64 0
  %172 = call i32 @puts(i8* %171)
  br label %173

173:                                              ; preds = %167
  %174 = load i32, i32* %3, align 4
  %175 = add nsw i32 %174, 1
  store i32 %175, i32* %3, align 4
  br label %163

176:                                              ; preds = %163
  ret i32 0
}

declare dso_local i32 @__isoc99_scanf(i8*, ...) #1

; Function Attrs: nounwind
declare dso_local i8* @strcpy(i8*, i8*) #2

declare dso_local i32 @puts(i8*) #1


!llvm.module.flags = !{!0}
!llvm.ident = !{!1}

!0 = !{i32 1, !"wchar_size", i32 4}
!1 = !{!"clang version 10.0.0-4ubuntu1 "}
